; Function Attrs: mustprogress uwtable
define hidden noundef zeroext i1 @_ZNK4cvc58internal12TheoryEngine11hasSatValueENS0_12NodeTemplateILb0EEERb(ptr nocapture noundef nonnull readonly align 8 dereferenceable(1448) %this, ptr nocapture noundef readonly %n, ptr noundef nonnull align 1 dereferenceable(1) %value) local_unnamed_addr #3 align 2 personality ptr @__gxx_personality_v0 {
entry:
  %agg.tmp = alloca %"class.cvc5::internal::NodeTemplate.799", align 8
  %agg.tmp3 = alloca %"class.cvc5::internal::NodeTemplate.799", align 8
  %d_propEngine = getelementptr inbounds i8, ptr %this, i64 16
  %0 = load ptr, ptr %d_propEngine, align 8
  %1 = load ptr, ptr %n, align 8
  store ptr %1, ptr %agg.tmp, align 8
  %call = call noundef zeroext i1 @_ZNK4cvc58internal4prop10PropEngine12isSatLiteralENS0_12NodeTemplateILb0EEE(ptr noundef nonnull align 8 dereferenceable(424) %0, ptr noundef nonnull %agg.tmp)
  br i1 %call, label %if.then, label %return

if.then:                                          ; preds = %entry
  %2 = load ptr, ptr %d_propEngine, align 8
  %3 = load ptr, ptr %n, align 8
  store ptr %3, ptr %agg.tmp3, align 8
  %call6 = call noundef zeroext i1 @_ZNK4cvc58internal4prop10PropEngine8hasValueENS0_12NodeTemplateILb0EEERb(ptr noundef nonnull align 8 dereferenceable(424) %2, ptr noundef nonnull %agg.tmp3, ptr noundef nonnull align 1 dereferenceable(1) %value)
  br label %return

return:                                           ; preds = %if.then, %entry
  %retval.0 = phi i1 [ false, %entry ], [ %call6, %if.then ]
  ret i1 %retval.0
}